; Function Attrs: nounwind uwtable
define ptr @l_Lean_Elab_addConstInfo___at_Lean_Elab_OpenDecl_elabOpenDecl___spec__45___rarg(ptr noundef %0, ptr noundef %1, ptr noundef %2, ptr noundef %3, ptr noundef %4, ptr noundef %5, ptr noundef %6, ptr noundef %7, ptr noundef %8, ptr noundef %9) #0 {
  %11 = getelementptr inbounds nuw i8, ptr %0, i64 16
  %12 = load ptr, ptr %11, align 8, !tbaa !4
  %13 = ptrtoint ptr %12 to i64
  %14 = and i64 %13, 1
  %.not = icmp eq i64 %14, 0
  br i1 %.not, label %15, label %lean_inc.exit26

15:                                               ; preds = %10
  %.val.i = load i32, ptr %12, align 4, !tbaa !8
  %16 = icmp sgt i32 %.val.i, 0
  br i1 %16, label %17, label %19, !prof !11

17:                                               ; preds = %15
  %18 = add nuw i32 %.val.i, 1
  store i32 %18, ptr %12, align 4, !tbaa !8
  br label %lean_inc.exit26

19:                                               ; preds = %15
  %.not.i = icmp eq i32 %.val.i, 0
  br i1 %.not.i, label %lean_inc.exit26, label %20

20:                                               ; preds = %19
  tail call void @lean_inc_ref_cold(ptr noundef nonnull %12) #6
  br label %lean_inc.exit26

lean_inc.exit26:                                  ; preds = %20, %19, %17, %10
  %21 = ptrtoint ptr %9 to i64
  %22 = and i64 %21, 1
  %.not33 = icmp eq i64 %22, 0
  br i1 %.not33, label %23, label %lean_inc.exit25

23:                                               ; preds = %lean_inc.exit26
  %.val.i27 = load i32, ptr %9, align 4, !tbaa !8
  %24 = icmp sgt i32 %.val.i27, 0
  br i1 %24, label %25, label %27, !prof !11

25:                                               ; preds = %23
  %26 = add nuw i32 %.val.i27, 1
  store i32 %26, ptr %9, align 4, !tbaa !8
  br label %lean_inc.exit25

27:                                               ; preds = %23
  %.not.i28 = icmp eq i32 %.val.i27, 0
  br i1 %.not.i28, label %lean_inc.exit25, label %28

28:                                               ; preds = %27
  tail call void @lean_inc_ref_cold(ptr noundef nonnull %9) #6
  br label %lean_inc.exit25

lean_inc.exit25:                                  ; preds = %28, %27, %25, %lean_inc.exit26
  %29 = ptrtoint ptr %0 to i64
  %30 = and i64 %29, 1
  %.not34 = icmp eq i64 %30, 0
  br i1 %.not34, label %31, label %lean_inc.exit

31:                                               ; preds = %lean_inc.exit25
  %.val.i30 = load i32, ptr %0, align 4, !tbaa !8
  %32 = icmp sgt i32 %.val.i30, 0
  br i1 %32, label %33, label %35, !prof !11

33:                                               ; preds = %31
  %34 = add nuw i32 %.val.i30, 1
  store i32 %34, ptr %0, align 4, !tbaa !8
  br label %lean_inc.exit

35:                                               ; preds = %31
  %.not.i31 = icmp eq i32 %.val.i30, 0
  br i1 %.not.i31, label %lean_inc.exit, label %36

36:                                               ; preds = %35
  tail call void @lean_inc_ref_cold(ptr noundef nonnull %0) #6
  br label %lean_inc.exit

lean_inc.exit:                                    ; preds = %36, %35, %33, %lean_inc.exit25
  %37 = tail call ptr @l_Lean_mkConstWithLevelParams___at_Lean_Elab_OpenDecl_elabOpenDecl___spec__46___rarg(ptr noundef nonnull %0, ptr noundef %1, ptr noundef %2, ptr noundef %3, ptr noundef %4, ptr noundef %7, ptr noundef %9)
  tail call void @lean_inc_heartbeat() #6
  %38 = tail call noalias ptr @mi_malloc_small(i64 noundef 64) #6
  %39 = icmp eq ptr %38, null
  br i1 %39, label %40, label %lean_alloc_closure.exit

40:                                               ; preds = %lean_inc.exit
  tail call void @lean_internal_panic_out_of_memory() #7
  unreachable

lean_alloc_closure.exit:                          ; preds = %lean_inc.exit
  %41 = getelementptr inbounds nuw i8, ptr %38, i64 4
  store i32 1, ptr %38, align 4, !tbaa !8
  store i32 -184549312, ptr %41, align 4
  %42 = getelementptr inbounds nuw i8, ptr %38, i64 8
  store ptr @l_Lean_Elab_addConstInfo___at_Lean_Elab_OpenDecl_elabOpenDecl___spec__45___rarg___lambda__1, ptr %42, align 8, !tbaa !4
  %43 = getelementptr inbounds nuw i8, ptr %38, i64 16
  store i16 6, ptr %43, align 8, !tbaa !12
  %44 = getelementptr inbounds nuw i8, ptr %38, i64 18
  store i16 5, ptr %44, align 2, !tbaa !12
  %45 = getelementptr inbounds nuw i8, ptr %38, i64 24
  store ptr %6, ptr %45, align 8, !tbaa !4
  %46 = getelementptr inbounds nuw i8, ptr %38, i64 32
  store ptr %8, ptr %46, align 8, !tbaa !4
  %47 = getelementptr inbounds nuw i8, ptr %38, i64 40
  store ptr %0, ptr %47, align 8, !tbaa !4
  %48 = getelementptr inbounds nuw i8, ptr %38, i64 48
  store ptr %5, ptr %48, align 8, !tbaa !4
  %49 = getelementptr inbounds nuw i8, ptr %38, i64 56
  store ptr %9, ptr %49, align 8, !tbaa !4
  %50 = tail call ptr @lean_apply_4(ptr noundef %12, ptr noundef nonnull inttoptr (i64 1 to ptr), ptr noundef nonnull inttoptr (i64 1 to ptr), ptr noundef %37, ptr noundef nonnull %38) #6
  ret ptr %50
}